target datalayout = "e-m:e-p270:32:32-p271:32:32-p272:64:64-i64:64-i128:128-f80:128-n8:16:32:64-S128"
target triple = "x86_64-pc-linux-gnu"

%struct.except_id_t = type { i64, i64 }
%struct.except_stacknode = type { ptr, i32, %union.anon.4 }
%union.anon.4 = type { ptr }
%struct.except_catch = type { ptr, i64, %struct.except_t, [1 x %struct.__jmp_buf_tag] }
%struct.except_t = type { %struct.except_id_t, ptr, ptr }
%struct.__jmp_buf_tag = type { [8 x i64], i32, %struct.__sigset_t }
%struct.__sigset_t = type { [16 x i64] }

@ccsds_heuristic_length = internal global i8 0, align 1
@ccsds_heuristic_version = internal global i8 0, align 1
@ccsds_heuristic_header = internal global i8 0, align 1
@ccsds_heuristic_bit = internal global i8 0, align 1
@check_is_802_2.catch_spec = internal constant [1 x %struct.except_id_t] [%struct.except_id_t { i64 1, i64 0 }], align 16

; Function Attrs: null_pointer_is_valid sspstrong uwtable
define internal zeroext i1 @check_is_802_2(ptr noundef %0, i32 noundef %1) #0 {
  %3 = alloca ptr, align 8
  %4 = alloca i32, align 4
  %5 = alloca i8, align 1
  %6 = alloca i32, align 4
  %7 = alloca i32, align 4
  %8 = alloca i32, align 4
  %9 = alloca ptr, align 8
  %10 = alloca i32, align 4
  %11 = alloca %struct.except_stacknode, align 8
  %12 = alloca %struct.except_catch, align 8
  %13 = alloca i8, align 1
  %14 = alloca i8, align 1
  %15 = alloca i8, align 1
  %16 = alloca i8, align 1
  store ptr %0, ptr %3, align 8
  store i32 %1, ptr %4, align 4
  call void @llvm.lifetime.start.p0(i64 1, ptr %5) #10
  call void @llvm.lifetime.start.p0(i64 4, ptr %6) #10
  call void @llvm.lifetime.start.p0(i64 4, ptr %7) #10
  call void @llvm.lifetime.start.p0(i64 4, ptr %8) #10
  store volatile i8 1, ptr %5, align 1
  call void @llvm.lifetime.start.p0(i64 8, ptr %9) #10
  call void @llvm.lifetime.start.p0(i64 4, ptr %10) #10
  store volatile i32 0, ptr %10, align 4
  call void @llvm.lifetime.start.p0(i64 24, ptr %11) #10
  call void @llvm.lifetime.start.p0(i64 248, ptr %12) #10
  call void @except_setup_try(ptr noundef %11, ptr noundef %12, ptr noundef @check_is_802_2.catch_spec, i64 noundef 1)
  %17 = getelementptr inbounds nuw %struct.except_catch, ptr %12, i32 0, i32 3
  %18 = getelementptr inbounds [1 x %struct.__jmp_buf_tag], ptr %17, i64 0, i64 0
  %19 = call i32 @_setjmp(ptr noundef %18) #13
  %20 = icmp ne i32 %19, 0
  br i1 %20, label %21, label %23

21:                                               ; preds = %2
  %22 = getelementptr inbounds nuw %struct.except_catch, ptr %12, i32 0, i32 2
  store volatile ptr %22, ptr %9, align 8
  br label %24

23:                                               ; preds = %2
  store volatile ptr null, ptr %9, align 8
  br label %24

24:                                               ; preds = %23, %21
  %25 = load volatile i32, ptr %10, align 4
  %26 = and i32 %25, 1
  %27 = icmp ne i32 %26, 0
  br i1 %27, label %28, label %31

28:                                               ; preds = %24
  %29 = load volatile i32, ptr %10, align 4
  %30 = or i32 %29, 2
  store volatile i32 %30, ptr %10, align 4
  br label %31

31:                                               ; preds = %28, %24
  %32 = load volatile i32, ptr %10, align 4
  %33 = and i32 %32, -2
  store volatile i32 %33, ptr %10, align 4
  %34 = load volatile i32, ptr %10, align 4
  %35 = icmp eq i32 %34, 0
  br i1 %35, label %36, label %147

36:                                               ; preds = %31
  %37 = load volatile ptr, ptr %9, align 8
  %38 = icmp eq ptr %37, null
  br i1 %38, label %39, label %147

39:                                               ; preds = %36
  %40 = load ptr, ptr %3, align 8
  %41 = call zeroext i16 @tvb_get_ntohs(ptr noundef %40, i32 noundef 14)
  %42 = zext i16 %41 to i32
  %43 = icmp eq i32 %42, 65535
  br i1 %43, label %44, label %45

44:                                               ; preds = %39
  store volatile i8 0, ptr %5, align 1
  br label %146

45:                                               ; preds = %39
  %46 = load i8, ptr @ccsds_heuristic_length, align 1, !range !6, !noundef !7
  %47 = trunc i8 %46 to i1
  br i1 %47, label %57, label %48

48:                                               ; preds = %45
  %49 = load i8, ptr @ccsds_heuristic_version, align 1, !range !6, !noundef !7
  %50 = trunc i8 %49 to i1
  br i1 %50, label %57, label %51

51:                                               ; preds = %48
  %52 = load i8, ptr @ccsds_heuristic_header, align 1, !range !6, !noundef !7
  %53 = trunc i8 %52 to i1
  br i1 %53, label %57, label %54

54:                                               ; preds = %51
  %55 = load i8, ptr @ccsds_heuristic_bit, align 1, !range !6, !noundef !7
  %56 = trunc i8 %55 to i1
  br i1 %56, label %57, label %145

57:                                               ; preds = %54, %51, %48, %45
  call void @llvm.lifetime.start.p0(i64 1, ptr %13) #10
  store i8 1, ptr %13, align 1
  call void @llvm.lifetime.start.p0(i64 1, ptr %14) #10
  store i8 1, ptr %14, align 1
  call void @llvm.lifetime.start.p0(i64 1, ptr %15) #10
  store i8 1, ptr %15, align 1
  call void @llvm.lifetime.start.p0(i64 1, ptr %16) #10
  store i8 1, ptr %16, align 1
  %58 = load i8, ptr @ccsds_heuristic_length, align 1, !range !6, !noundef !7
  %59 = trunc i8 %58 to i1
  br i1 %59, label %60, label %104

60:                                               ; preds = %57
  %61 = load ptr, ptr %3, align 8
  %62 = call zeroext i16 @tvb_get_ntohs(ptr noundef %61, i32 noundef 12)
  %63 = zext i16 %62 to i32
  store volatile i32 %63, ptr %6, align 4
  %64 = load ptr, ptr %3, align 8
  %65 = call i32 @tvb_reported_length_remaining(ptr noundef %64, i32 noundef 14)
  store i32 %65, ptr %8, align 4
  %66 = load i32, ptr %4, align 4
  %67 = icmp sgt i32 %66, 0
  br i1 %67, label %68, label %77

68:                                               ; preds = %60
  %69 = load i32, ptr %8, align 4
  %70 = load i32, ptr %4, align 4
  %71 = icmp sge i32 %69, %70
  br i1 %71, label %72, label %76

72:                                               ; preds = %68
  %73 = load i32, ptr %4, align 4
  %74 = load i32, ptr %8, align 4
  %75 = sub i32 %74, %73
  store i32 %75, ptr %8, align 4
  br label %76

76:                                               ; preds = %72, %68
  br label %77

77:                                               ; preds = %76, %60
  %78 = load volatile i32, ptr %6, align 4
  %79 = load i32, ptr %8, align 4
  %80 = icmp sgt i32 %78, %79
  br i1 %80, label %81, label %83

81:                                               ; preds = %77
  %82 = load i32, ptr %8, align 4
  store volatile i32 %82, ptr %6, align 4
  br label %83

83:                                               ; preds = %81, %77
  %84 = load ptr, ptr %3, align 8
  %85 = call i32 @tvb_captured_length_remaining(ptr noundef %84, i32 noundef 14)
  store i32 %85, ptr %7, align 4
  %86 = load i32, ptr %7, align 4
  %87 = load volatile i32, ptr %6, align 4
  %88 = icmp sgt i32 %86, %87
  br i1 %88, label %89, label %91

89:                                               ; preds = %83
  %90 = load volatile i32, ptr %6, align 4
  store i32 %90, ptr %7, align 4
  br label %91

91:                                               ; preds = %89, %83
  %92 = load i32, ptr %7, align 4
  %93 = icmp sge i32 %92, 6
  br i1 %93, label %94, label %103

94:                                               ; preds = %91
  %95 = load volatile i32, ptr %6, align 4
  %96 = load ptr, ptr %3, align 8
  %97 = call zeroext i16 @tvb_get_ntohs(ptr noundef %96, i32 noundef 18)
  %98 = zext i16 %97 to i32
  %99 = add i32 7, %98
  %100 = icmp ne i32 %95, %99
  br i1 %100, label %101, label %102

101:                                              ; preds = %94
  store i8 0, ptr %13, align 1
  br label %102

102:                                              ; preds = %101, %94
  br label %103

103:                                              ; preds = %102, %91
  br label %104

104:                                              ; preds = %103, %57
  %105 = load i8, ptr @ccsds_heuristic_version, align 1, !range !6, !noundef !7
  %106 = trunc i8 %105 to i1
  br i1 %106, label %107, label %113

107:                                              ; preds = %104
  %108 = load ptr, ptr %3, align 8
  %109 = call zeroext i8 @tvb_get_bits8(ptr noundef %108, i32 noundef 112, i32 noundef 3)
  %110 = zext i8 %109 to i32
  %111 = icmp ne i32 %110, 0
  br i1 %111, label %112, label %113

112:                                              ; preds = %107
  store i8 0, ptr %14, align 1
  br label %113

113:                                              ; preds = %112, %107, %104
  %114 = load i8, ptr @ccsds_heuristic_header, align 1, !range !6, !noundef !7
  %115 = trunc i8 %114 to i1
  br i1 %115, label %116, label %122

116:                                              ; preds = %113
  %117 = load ptr, ptr %3, align 8
  %118 = call zeroext i8 @tvb_get_bits8(ptr noundef %117, i32 noundef 116, i32 noundef 1)
  %119 = zext i8 %118 to i32
  %120 = icmp ne i32 %119, 1
  br i1 %120, label %121, label %122

121:                                              ; preds = %116
  store i8 0, ptr %15, align 1
  br label %122

122:                                              ; preds = %121, %116, %113
  %123 = load i8, ptr @ccsds_heuristic_bit, align 1, !range !6, !noundef !7
  %124 = trunc i8 %123 to i1
  br i1 %124, label %125, label %131

125:                                              ; preds = %122
  %126 = load ptr, ptr %3, align 8
  %127 = call zeroext i8 @tvb_get_bits8(ptr noundef %126, i32 noundef 208, i32 noundef 1)
  %128 = zext i8 %127 to i32
  %129 = icmp ne i32 %128, 0
  br i1 %129, label %130, label %131

130:                                              ; preds = %125
  store i8 0, ptr %16, align 1
  br label %131

131:                                              ; preds = %130, %125, %122
  %132 = load i8, ptr %13, align 1, !range !6, !noundef !7
  %133 = trunc i8 %132 to i1
  br i1 %133, label %134, label %144

134:                                              ; preds = %131
  %135 = load i8, ptr %14, align 1, !range !6, !noundef !7
  %136 = trunc i8 %135 to i1
  br i1 %136, label %137, label %144

137:                                              ; preds = %134
  %138 = load i8, ptr %15, align 1, !range !6, !noundef !7
  %139 = trunc i8 %138 to i1
  br i1 %139, label %140, label %144

140:                                              ; preds = %137
  %141 = load i8, ptr %16, align 1, !range !6, !noundef !7
  %142 = trunc i8 %141 to i1
  br i1 %142, label %143, label %144

143:                                              ; preds = %140
  store volatile i8 0, ptr %5, align 1
  br label %144

144:                                              ; preds = %143, %140, %137, %134, %131
  call void @llvm.lifetime.end.p0(i64 1, ptr %16) #10
  call void @llvm.lifetime.end.p0(i64 1, ptr %15) #10
  call void @llvm.lifetime.end.p0(i64 1, ptr %14) #10
  call void @llvm.lifetime.end.p0(i64 1, ptr %13) #10
  br label %145

145:                                              ; preds = %144, %54
  br label %146

146:                                              ; preds = %145, %44
  br label %147

147:                                              ; preds = %146, %36, %31
  %148 = load volatile i32, ptr %10, align 4
  %149 = icmp eq i32 %148, 0
  br i1 %149, label %150, label %188

150:                                              ; preds = %147
  %151 = load volatile ptr, ptr %9, align 8
  %152 = icmp ne ptr %151, null
  br i1 %152, label %153, label %188

153:                                              ; preds = %150
  %154 = load volatile ptr, ptr %9, align 8
  %155 = getelementptr inbounds nuw %struct.except_t, ptr %154, i32 0, i32 0
  %156 = getelementptr inbounds nuw %struct.except_id_t, ptr %155, i32 0, i32 1
  %157 = load volatile i64, ptr %156, align 8
  %158 = icmp eq i64 %157, 1
  br i1 %158, label %183, label %159

159:                                              ; preds = %153
  %160 = load volatile ptr, ptr %9, align 8
  %161 = getelementptr inbounds nuw %struct.except_t, ptr %160, i32 0, i32 0
  %162 = getelementptr inbounds nuw %struct.except_id_t, ptr %161, i32 0, i32 1
  %163 = load volatile i64, ptr %162, align 8
  %164 = icmp eq i64 %163, 4
  br i1 %164, label %183, label %165

165:                                              ; preds = %159
  %166 = load volatile ptr, ptr %9, align 8
  %167 = getelementptr inbounds nuw %struct.except_t, ptr %166, i32 0, i32 0
  %168 = getelementptr inbounds nuw %struct.except_id_t, ptr %167, i32 0, i32 1
  %169 = load volatile i64, ptr %168, align 8
  %170 = icmp eq i64 %169, 3
  br i1 %170, label %183, label %171

171:                                              ; preds = %165
  %172 = load volatile ptr, ptr %9, align 8
  %173 = getelementptr inbounds nuw %struct.except_t, ptr %172, i32 0, i32 0
  %174 = getelementptr inbounds nuw %struct.except_id_t, ptr %173, i32 0, i32 1
  %175 = load volatile i64, ptr %174, align 8
  %176 = icmp eq i64 %175, 2
  br i1 %176, label %183, label %177

177:                                              ; preds = %171
  %178 = load volatile ptr, ptr %9, align 8
  %179 = getelementptr inbounds nuw %struct.except_t, ptr %178, i32 0, i32 0
  %180 = getelementptr inbounds nuw %struct.except_id_t, ptr %179, i32 0, i32 1
  %181 = load volatile i64, ptr %180, align 8
  %182 = icmp eq i64 %181, 7
  br i1 %182, label %183, label %188

183:                                              ; preds = %177, %171, %165, %159, %153
  %184 = load volatile i32, ptr %10, align 4
  %185 = or i32 %184, 1
  store volatile i32 %185, ptr %10, align 4
  %186 = icmp ne i32 %185, 0
  br i1 %186, label %187, label %188

187:                                              ; preds = %183
  br label %188

188:                                              ; preds = %187, %183, %177, %150, %147
  %189 = load volatile i32, ptr %10, align 4
  %190 = and i32 %189, 1
  %191 = icmp ne i32 %190, 0
  br i1 %191, label %197, label %192

192:                                              ; preds = %188
  %193 = load volatile ptr, ptr %9, align 8
  %194 = icmp ne ptr %193, null
  br i1 %194, label %195, label %197

195:                                              ; preds = %192
  %196 = load volatile ptr, ptr %9, align 8
  call void @except_rethrow(ptr noundef %196) #14
  unreachable

197:                                              ; preds = %192, %188
  %198 = getelementptr inbounds nuw %struct.except_catch, ptr %12, i32 0, i32 2
  %199 = getelementptr inbounds nuw %struct.except_t, ptr %198, i32 0, i32 2
  %200 = load volatile ptr, ptr %199, align 8
  call void @except_free(ptr noundef %200)
  %201 = call ptr @except_pop()
  call void @llvm.lifetime.end.p0(i64 248, ptr %12) #10
  call void @llvm.lifetime.end.p0(i64 24, ptr %11) #10
  call void @llvm.lifetime.end.p0(i64 4, ptr %10) #10
  call void @llvm.lifetime.end.p0(i64 8, ptr %9) #10
  %202 = load volatile i8, ptr %5, align 1, !range !6, !noundef !7
  %203 = trunc i8 %202 to i1
  call void @llvm.lifetime.end.p0(i64 4, ptr %8) #10
  call void @llvm.lifetime.end.p0(i64 4, ptr %7) #10
  call void @llvm.lifetime.end.p0(i64 4, ptr %6) #10
  call void @llvm.lifetime.end.p0(i64 1, ptr %5) #10
  ret i1 %203
}