; Function Attrs: null_pointer_is_valid sspstrong uwtable
define internal fastcc zeroext i1 @check_is_802_2(ptr noundef %0, i32 noundef %1) unnamed_addr #0 {
  %3 = alloca i8, align 1
  %4 = alloca i32, align 4
  %5 = alloca ptr, align 8
  %6 = alloca i32, align 4
  %7 = alloca %struct.except_stacknode, align 8
  %8 = alloca %struct.except_catch, align 8
  call void @llvm.lifetime.start.p0(i64 1, ptr nonnull %3)
  call void @llvm.lifetime.start.p0(i64 4, ptr nonnull %4)
  store volatile i8 1, ptr %3, align 1
  call void @llvm.lifetime.start.p0(i64 8, ptr nonnull %5)
  call void @llvm.lifetime.start.p0(i64 4, ptr nonnull %6)
  store volatile i32 0, ptr %6, align 4
  call void @llvm.lifetime.start.p0(i64 24, ptr nonnull %7) #11
  call void @llvm.lifetime.start.p0(i64 248, ptr nonnull %8) #11
  call void @except_setup_try(ptr noundef nonnull %7, ptr noundef nonnull %8, ptr noundef nonnull @check_is_802_2.catch_spec, i64 noundef 1)
  %9 = getelementptr inbounds nuw i8, ptr %8, i64 48
  %10 = call i32 @_setjmp(ptr noundef nonnull %9) #12
  %.not = icmp eq i32 %10, 0
  %11 = getelementptr inbounds nuw i8, ptr %8, i64 16
  %.sink = select i1 %.not, ptr null, ptr %11
  store volatile ptr %.sink, ptr %5, align 8
  %.0..0..0..0. = load volatile i32, ptr %6, align 4
  %12 = and i32 %.0..0..0..0., 1
  %.not49 = icmp eq i32 %12, 0
  br i1 %.not49, label %15, label %13

13:                                               ; preds = %2
  %.0..0..0..0.4 = load volatile i32, ptr %6, align 4
  %14 = or i32 %.0..0..0..0.4, 2
  store volatile i32 %14, ptr %6, align 4
  br label %15

15:                                               ; preds = %13, %2
  %.0..0..0..0.5 = load volatile i32, ptr %6, align 4
  %16 = and i32 %.0..0..0..0.5, -2
  store volatile i32 %16, ptr %6, align 4
  %.0..0..0..0.6 = load volatile i32, ptr %6, align 4
  %17 = icmp eq i32 %.0..0..0..0.6, 0
  br i1 %17, label %18, label %68

18:                                               ; preds = %15
  %.0..0..0..0.10 = load volatile ptr, ptr %5, align 8
  %19 = icmp eq ptr %.0..0..0..0.10, null
  br i1 %19, label %20, label %68

20:                                               ; preds = %18
  %21 = call zeroext i16 @tvb_get_ntohs(ptr noundef %0, i32 noundef 14)
  %22 = icmp eq i16 %21, -1
  br i1 %22, label %.sink.split, label %23

23:                                               ; preds = %20
  %24 = load i8, ptr @ccsds_heuristic_length, align 1, !range !8, !noundef !9
  %25 = trunc nuw i8 %24 to i1
  br i1 %25, label %35, label %26

26:                                               ; preds = %23
  %27 = load i8, ptr @ccsds_heuristic_version, align 1, !range !8, !noundef !9
  %28 = trunc nuw i8 %27 to i1
  br i1 %28, label %.thread, label %29

29:                                               ; preds = %26
  %30 = load i8, ptr @ccsds_heuristic_header, align 1, !range !8, !noundef !9
  %31 = trunc nuw i8 %30 to i1
  br i1 %31, label %.thread, label %32

32:                                               ; preds = %29
  %33 = load i8, ptr @ccsds_heuristic_bit, align 1, !range !8, !noundef !9
  %34 = trunc nuw i8 %33 to i1
  br i1 %34, label %.thread, label %68

35:                                               ; preds = %23
  %36 = call zeroext i16 @tvb_get_ntohs(ptr noundef %0, i32 noundef 12)
  %37 = zext i16 %36 to i32
  store volatile i32 %37, ptr %4, align 4
  %38 = call i32 @tvb_reported_length_remaining(ptr noundef %0, i32 noundef 14)
  %39 = icmp slt i32 %1, 1
  %.not50 = icmp slt i32 %38, %1
  %or.cond = or i1 %39, %.not50
  %40 = select i1 %or.cond, i32 0, i32 %1
  %.044 = sub nsw i32 %38, %40
  %.0..0..0..0.25 = load volatile i32, ptr %4, align 4
  %41 = icmp sgt i32 %.0..0..0..0.25, %.044
  br i1 %41, label %42, label %43

42:                                               ; preds = %35
  store volatile i32 %.044, ptr %4, align 4
  br label %43

43:                                               ; preds = %42, %35
  %44 = call i32 @tvb_captured_length_remaining(ptr noundef %0, i32 noundef 14)
  %.0..0..0..0.26 = load volatile i32, ptr %4, align 4
  %45 = icmp sgt i32 %44, %.0..0..0..0.26
  br i1 %45, label %46, label %47

46:                                               ; preds = %43
  %.0..0..0..0.27 = load volatile i32, ptr %4, align 4
  br label %47

47:                                               ; preds = %46, %43
  %.045 = phi i32 [ %.0..0..0..0.27, %46 ], [ %44, %43 ]
  %48 = icmp sgt i32 %.045, 5
  br i1 %48, label %49, label %.thread

49:                                               ; preds = %47
  %.0..0..0..0.28 = load volatile i32, ptr %4, align 4
  %50 = call zeroext i16 @tvb_get_ntohs(ptr noundef %0, i32 noundef 18)
  %51 = zext i16 %50 to i32
  %52 = add nuw nsw i32 %51, 7
  %.not51 = icmp ne i32 %.0..0..0..0.28, %52
  br label %.thread

.thread:                                          ; preds = %26, %29, %32, %49, %47
  %.043 = phi i1 [ false, %47 ], [ %.not51, %49 ], [ false, %32 ], [ false, %29 ], [ false, %26 ]
  %53 = load i8, ptr @ccsds_heuristic_version, align 1, !range !8, !noundef !9
  %54 = trunc nuw i8 %53 to i1
  br i1 %54, label %55, label %57

55:                                               ; preds = %.thread
  %56 = call zeroext i8 @tvb_get_bits8(ptr noundef %0, i32 noundef 112, i32 noundef 3)
  %.not52 = icmp ne i8 %56, 0
  br label %57

57:                                               ; preds = %55, %.thread
  %.042 = phi i1 [ false, %.thread ], [ %.not52, %55 ]
  %58 = load i8, ptr @ccsds_heuristic_header, align 1, !range !8, !noundef !9
  %59 = trunc nuw i8 %58 to i1
  br i1 %59, label %60, label %62

60:                                               ; preds = %57
  %61 = call zeroext i8 @tvb_get_bits8(ptr noundef %0, i32 noundef 116, i32 noundef 1)
  %.not53 = icmp ne i8 %61, 1
  br label %62

62:                                               ; preds = %60, %57
  %.041 = phi i1 [ false, %57 ], [ %.not53, %60 ]
  %63 = load i8, ptr @ccsds_heuristic_bit, align 1, !range !8, !noundef !9
  %64 = trunc nuw i8 %63 to i1
  br i1 %64, label %65, label %67

65:                                               ; preds = %62
  %66 = call zeroext i8 @tvb_get_bits8(ptr noundef %0, i32 noundef 208, i32 noundef 1)
  %.not54 = icmp ne i8 %66, 0
  br label %67

67:                                               ; preds = %65, %62
  %.0 = phi i1 [ false, %62 ], [ %.not54, %65 ]
  %brmerge = or i1 %.043, %.042
  %brmerge61 = or i1 %brmerge, %.041
  %brmerge62 = or i1 %brmerge61, %.0
  br i1 %brmerge62, label %68, label %.sink.split

.sink.split:                                      ; preds = %67, %20
  store volatile i8 0, ptr %3, align 1
  br label %68

68:                                               ; preds = %.sink.split, %67, %32, %18, %15
  %.0..0..0..0.7 = load volatile i32, ptr %6, align 4
  %69 = icmp eq i32 %.0..0..0..0.7, 0
  br i1 %69, label %70, label %93

70:                                               ; preds = %68
  %.0..0..0..0.11 = load volatile ptr, ptr %5, align 8
  %.not55 = icmp eq ptr %.0..0..0..0.11, null
  br i1 %.not55, label %93, label %71

71:                                               ; preds = %70
  %.0..0..0..0.12 = load volatile ptr, ptr %5, align 8
  %72 = getelementptr inbounds nuw i8, ptr %.0..0..0..0.12, i64 8
  %73 = load volatile i64, ptr %72, align 8
  %74 = icmp eq i64 %73, 1
  br i1 %74, label %91, label %75

75:                                               ; preds = %71
  %.0..0..0..0.13 = load volatile ptr, ptr %5, align 8
  %76 = getelementptr inbounds nuw i8, ptr %.0..0..0..0.13, i64 8
  %77 = load volatile i64, ptr %76, align 8
  %78 = icmp eq i64 %77, 4
  br i1 %78, label %91, label %79

79:                                               ; preds = %75
  %.0..0..0..0.14 = load volatile ptr, ptr %5, align 8
  %80 = getelementptr inbounds nuw i8, ptr %.0..0..0..0.14, i64 8
  %81 = load volatile i64, ptr %80, align 8
  %82 = icmp eq i64 %81, 3
  br i1 %82, label %91, label %83

83:                                               ; preds = %79
  %.0..0..0..0.15 = load volatile ptr, ptr %5, align 8
  %84 = getelementptr inbounds nuw i8, ptr %.0..0..0..0.15, i64 8
  %85 = load volatile i64, ptr %84, align 8
  %86 = icmp eq i64 %85, 2
  br i1 %86, label %91, label %87

87:                                               ; preds = %83
  %.0..0..0..0.16 = load volatile ptr, ptr %5, align 8
  %88 = getelementptr inbounds nuw i8, ptr %.0..0..0..0.16, i64 8
  %89 = load volatile i64, ptr %88, align 8
  %90 = icmp eq i64 %89, 7
  br i1 %90, label %91, label %93

91:                                               ; preds = %87, %83, %79, %75, %71
  %.0..0..0..0.8 = load volatile i32, ptr %6, align 4
  %92 = or i32 %.0..0..0..0.8, 1
  store volatile i32 %92, ptr %6, align 4
  br label %93

93:                                               ; preds = %91, %87, %70, %68
  %.0..0..0..0.9 = load volatile i32, ptr %6, align 4
  %94 = and i32 %.0..0..0..0.9, 1
  %.not56 = icmp eq i32 %94, 0
  br i1 %.not56, label %95, label %97

95:                                               ; preds = %93
  %.0..0..0..0.17 = load volatile ptr, ptr %5, align 8
  %.not57 = icmp eq ptr %.0..0..0..0.17, null
  br i1 %.not57, label %97, label %96

96:                                               ; preds = %95
  %.0..0..0..0.18 = load volatile ptr, ptr %5, align 8
  call void @except_rethrow(ptr noundef %.0..0..0..0.18) #13
  unreachable

97:                                               ; preds = %95, %93
  %98 = getelementptr inbounds nuw i8, ptr %8, i64 40
  %99 = load volatile ptr, ptr %98, align 8
  call void @except_free(ptr noundef %99)
  %100 = call ptr @except_pop()
  call void @llvm.lifetime.end.p0(i64 248, ptr nonnull %8) #11
  call void @llvm.lifetime.end.p0(i64 24, ptr nonnull %7) #11
  call void @llvm.lifetime.end.p0(i64 4, ptr nonnull %6)
  call void @llvm.lifetime.end.p0(i64 8, ptr nonnull %5)
  %.0..0..0..0.29 = load volatile i8, ptr %3, align 1, !range !8, !noundef !9
  %101 = trunc nuw i8 %.0..0..0..0.29 to i1
  call void @llvm.lifetime.end.p0(i64 4, ptr nonnull %4)
  call void @llvm.lifetime.end.p0(i64 1, ptr nonnull %3)
  ret i1 %101
}